target datalayout = "e-m:e-p270:32:32-p271:32:32-p272:64:64-i64:64-i128:128-f80:128-n8:16:32:64-S128"
target triple = "x86_64-pc-linux-gnu"

; Function Attrs: nounwind uwtable
define internal i32 @H5P__lacc_elink_pref_cmp(ptr noundef %0, ptr noundef %1, i64 noundef %2) #0 {
  %4 = alloca ptr, align 8
  %5 = alloca ptr, align 8
  %6 = alloca i64, align 8
  %7 = alloca ptr, align 8
  %8 = alloca ptr, align 8
  %9 = alloca i32, align 4
  store ptr %0, ptr %4, align 8
  store ptr %1, ptr %5, align 8
  store i64 %2, ptr %6, align 8
  %10 = load ptr, ptr %4, align 8
  %11 = load ptr, ptr %10, align 8
  store ptr %11, ptr %7, align 8
  %12 = load ptr, ptr %5, align 8
  %13 = load ptr, ptr %12, align 8
  store ptr %13, ptr %8, align 8
  store i32 0, ptr %9, align 4
  %14 = load ptr, ptr %7, align 8
  %15 = icmp eq ptr null, %14
  br i1 %15, label %16, label %22

16:                                               ; preds = %3
  %17 = load ptr, ptr %8, align 8
  %18 = icmp ne ptr null, %17
  br i1 %18, label %19, label %22

19:                                               ; preds = %16
  br label %20

20:                                               ; preds = %19
  store i32 1, ptr %9, align 4
  br label %42

21:                                               ; No predecessors!
  br label %22

22:                                               ; preds = %21, %16, %3
  %23 = load ptr, ptr %7, align 8
  %24 = icmp ne ptr null, %23
  br i1 %24, label %25, label %31

25:                                               ; preds = %22
  %26 = load ptr, ptr %8, align 8
  %27 = icmp eq ptr null, %26
  br i1 %27, label %28, label %31

28:                                               ; preds = %25
  br label %29

29:                                               ; preds = %28
  store i32 -1, ptr %9, align 4
  br label %42

30:                                               ; No predecessors!
  br label %31

31:                                               ; preds = %30, %25, %22
  %32 = load ptr, ptr %7, align 8
  %33 = icmp ne ptr null, %32
  br i1 %33, label %34, label %41

34:                                               ; preds = %31
  %35 = load ptr, ptr %8, align 8
  %36 = icmp ne ptr null, %35
  br i1 %36, label %37, label %41

37:                                               ; preds = %34
  %38 = load ptr, ptr %7, align 8
  %39 = load ptr, ptr %8, align 8
  %40 = call i32 @strcmp(ptr noundef %38, ptr noundef %39) #6
  store i32 %40, ptr %9, align 4
  br label %41

41:                                               ; preds = %37, %34, %31
  br label %42

42:                                               ; preds = %41, %29, %20
  %43 = load i32, ptr %9, align 4
  ret i32 %43
}