; Function Attrs: mustprogress nofree nounwind willreturn memory(read, inaccessiblemem: none) uwtable
define internal i32 @H5P__lacc_elink_pref_cmp(ptr noundef readonly captures(none) %0, ptr noundef readonly captures(none) %1, i64 %2) #5 {
  %4 = load ptr, ptr %0, align 8
  %5 = load ptr, ptr %1, align 8
  %6 = icmp eq ptr %4, null
  %7 = icmp ne ptr %5, null
  %or.cond = select i1 %6, i1 %7, i1 false
  br i1 %or.cond, label %14, label %8

8:                                                ; preds = %3
  %9 = icmp ne ptr %4, null
  %10 = icmp eq ptr %5, null
  %or.cond3 = select i1 %9, i1 %10, i1 false
  br i1 %or.cond3, label %14, label %11

11:                                               ; preds = %8
  %or.cond5 = select i1 %9, i1 %7, i1 false
  br i1 %or.cond5, label %12, label %14

12:                                               ; preds = %11
  %13 = tail call i32 @strcmp(ptr noundef nonnull dereferenceable(1) %4, ptr noundef nonnull dereferenceable(1) %5) #9
  br label %14

14:                                               ; preds = %8, %3, %11, %12
  %.0 = phi i32 [ %13, %12 ], [ 0, %11 ], [ 1, %3 ], [ -1, %8 ]
  ret i32 %.0
}